; Function Attrs: nofree norecurse nounwind memory(read, inaccessiblemem: none) uwtable
define ptr @av_opt_ptr(ptr noundef readonly captures(address_is_null) %0, ptr noundef readnone captures(ret: address, provenance) %1, ptr noundef readonly captures(none) %2) local_unnamed_addr #10 {
  %.not60.i = icmp eq ptr %0, null
  br i1 %.not60.i, label %av_opt_find2.exit.thread, label %4

4:                                                ; preds = %3
  %5 = getelementptr inbounds nuw i8, ptr %0, i64 16
  br label %.thread89.split.us.split.i

.thread89.split.us.split.i:                       ; preds = %.thread89.split.us.split.i.backedge, %4
  %.5.us.i = phi ptr [ null, %4 ], [ %.0.i78.ph.us.i, %.thread89.split.us.split.i.backedge ]
  %6 = icmp eq ptr %.5.us.i, null
  br i1 %6, label %10, label %7

7:                                                ; preds = %.thread89.split.us.split.i
  %8 = getelementptr inbounds nuw i8, ptr %.5.us.i, i64 64
  %9 = load ptr, ptr %8, align 8, !tbaa !14
  %.not19.i.us.i = icmp eq ptr %9, null
  br i1 %.not19.i.us.i, label %av_opt_find2.exit.thread, label %14

10:                                               ; preds = %.thread89.split.us.split.i
  %11 = load ptr, ptr %5, align 8, !tbaa !9
  %.not16.i.us.i = icmp eq ptr %11, null
  br i1 %.not16.i.us.i, label %av_opt_find2.exit.thread, label %12

12:                                               ; preds = %10
  %13 = load ptr, ptr %11, align 8, !tbaa !14
  %.not17.i.us.i = icmp eq ptr %13, null
  br i1 %.not17.i.us.i, label %av_opt_find2.exit.thread, label %14

14:                                               ; preds = %12, %7
  %15 = phi ptr [ %9, %7 ], [ %13, %12 ]
  %.0.i78.ph.us.i = phi ptr [ %8, %7 ], [ %11, %12 ]
  %16 = tail call i32 @strcmp(ptr noundef nonnull dereferenceable(1) %15, ptr noundef nonnull dereferenceable(1) %2) #19
  %.not68.us.i = icmp eq i32 %16, 0
  br i1 %.not68.us.i, label %17, label %.thread89.split.us.split.i.backedge

17:                                               ; preds = %14
  %18 = getelementptr inbounds nuw i8, ptr %.0.i78.ph.us.i, i64 20
  %19 = load i32, ptr %18, align 4, !tbaa !18
  %.not70.us.i = icmp eq i32 %19, 11
  br i1 %.not70.us.i, label %.thread89.split.us.split.i.backedge, label %av_opt_find2.exit

.thread89.split.us.split.i.backedge:              ; preds = %17, %14
  br label %.thread89.split.us.split.i, !llvm.loop !63

av_opt_find2.exit:                                ; preds = %17
  %20 = and i32 %19, 65536
  %.not7 = icmp eq i32 %20, 0
  br i1 %.not7, label %21, label %av_opt_find2.exit.thread

21:                                               ; preds = %av_opt_find2.exit
  %22 = getelementptr inbounds nuw i8, ptr %.0.i78.ph.us.i, i64 16
  %23 = load i32, ptr %22, align 8, !tbaa !28
  %24 = sext i32 %23 to i64
  %25 = getelementptr inbounds i8, ptr %1, i64 %24
  br label %av_opt_find2.exit.thread

av_opt_find2.exit.thread:                         ; preds = %7, %10, %12, %3, %av_opt_find2.exit, %21
  %.0 = phi ptr [ %25, %21 ], [ null, %av_opt_find2.exit ], [ null, %3 ], [ null, %12 ], [ null, %10 ], [ null, %7 ]
  ret ptr %.0
}